target datalayout = "e-m:e-p270:32:32-p271:32:32-p272:64:64-i64:64-i128:128-f80:128-n8:16:32:64-S128"
target triple = "x86_64-pc-linux-gnu"

%struct.pcre2_memctl = type { ptr, ptr, ptr }
%struct.pcre2_real_match_context_8 = type { %struct.pcre2_memctl, ptr, ptr, ptr, ptr, ptr, ptr, ptr, ptr, i64, i32, i32, i32 }

; Function Attrs: nounwind uwtable
define dso_local void @php_pcre2_match_context_free(ptr noundef %0) #0 {
  %2 = alloca ptr, align 8
  store ptr %0, ptr %2, align 8, !tbaa !32
  %3 = load ptr, ptr %2, align 8, !tbaa !32
  %4 = icmp ne ptr %3, null
  br i1 %4, label %5, label %15

5:                                                ; preds = %1
  %6 = load ptr, ptr %2, align 8, !tbaa !32
  %7 = getelementptr inbounds nuw %struct.pcre2_real_match_context_8, ptr %6, i32 0, i32 0
  %8 = getelementptr inbounds nuw %struct.pcre2_memctl, ptr %7, i32 0, i32 1
  %9 = load ptr, ptr %8, align 8, !tbaa !48
  %10 = load ptr, ptr %2, align 8, !tbaa !32
  %11 = load ptr, ptr %2, align 8, !tbaa !32
  %12 = getelementptr inbounds nuw %struct.pcre2_real_match_context_8, ptr %11, i32 0, i32 0
  %13 = getelementptr inbounds nuw %struct.pcre2_memctl, ptr %12, i32 0, i32 2
  %14 = load ptr, ptr %13, align 8, !tbaa !43
  call void %9(ptr noundef %10, ptr noundef %14)
  br label %15

15:                                               ; preds = %5, %1
  ret void
}