; Function Attrs: nounwind uwtable
define dso_local void @php_pcre2_match_context_free(ptr noundef %0) local_unnamed_addr #0 {
  %.not = icmp eq ptr %0, null
  br i1 %.not, label %7, label %2

2:                                                ; preds = %1
  %3 = getelementptr inbounds nuw i8, ptr %0, i64 8
  %4 = load ptr, ptr %3, align 8, !tbaa !38
  %5 = getelementptr inbounds nuw i8, ptr %0, i64 16
  %6 = load ptr, ptr %5, align 8, !tbaa !33
  tail call void %4(ptr noundef nonnull %0, ptr noundef %6) #12
  br label %7

7:                                                ; preds = %2, %1
  ret void
}